; ModuleID = 'test11.cpp'
target datalayout = "e-m:e-i64:64-f80:128-n8:16:32:64-S128"
target triple = "x86_64-unknown-linux-gnu"

%"class.std::basic_fstream" = type { %"class.std::basic_iostream.base", %"class.std::basic_filebuf", %"class.std::basic_ios" }
%"class.std::basic_iostream.base" = type { %"class.std::basic_istream.base", %"class.std::basic_ostream.base" }
%"class.std::basic_istream.base" = type { i32 (...)**, i64 }
%"class.std::basic_ostream.base" = type { i32 (...)** }
%"class.std::basic_filebuf" = type { %"class.std::basic_streambuf", %union.pthread_mutex_t, %"class.std::__basic_file", i32, %struct.__mbstate_t, %struct.__mbstate_t, %struct.__mbstate_t, i8*, i64, i8, i8, i8, i8, i8*, i8*, i8, %"class.std::codecvt"*, i8*, i64, i8*, i8* }
%"class.std::basic_streambuf" = type { i32 (...)**, i8*, i8*, i8*, i8*, i8*, i8*, %"class.std::locale" }
%"class.std::locale" = type { %"class.std::locale::_Impl"* }
%"class.std::locale::_Impl" = type { i32, %"class.std::locale::facet"**, i64, %"class.std::locale::facet"**, i8** }
%"class.std::locale::facet" = type <{ i32 (...)**, i32, [4 x i8] }>
%union.pthread_mutex_t = type { %"struct.(anonymous union)::__pthread_mutex_s" }
%"struct.(anonymous union)::__pthread_mutex_s" = type { i32, i32, i32, i32, i32, i16, i16, %struct.__pthread_internal_list }
%struct.__pthread_internal_list = type { %struct.__pthread_internal_list*, %struct.__pthread_internal_list* }
%"class.std::__basic_file" = type <{ %struct._IO_FILE*, i8, [7 x i8] }>
%struct._IO_FILE = type { i32, i8*, i8*, i8*, i8*, i8*, i8*, i8*, i8*, i8*, i8*, i8*, %struct._IO_marker*, %struct._IO_FILE*, i32, i32, i64, i16, i8, [1 x i8], i8*, i64, i8*, i8*, i8*, i8*, i64, i32, [20 x i8] }
%struct._IO_marker = type { %struct._IO_marker*, %struct._IO_FILE*, i32 }
%struct.__mbstate_t = type { i32, %union.anon }
%union.anon = type { i32 }
%"class.std::codecvt" = type { %"class.std::__codecvt_abstract_base.base", %struct.__locale_struct* }
%"class.std::__codecvt_abstract_base.base" = type { %"class.std::locale::facet.base" }
%"class.std::locale::facet.base" = type <{ i32 (...)**, i32 }>
%struct.__locale_struct = type { [13 x %struct.__locale_data*], i16*, i32*, i32*, [13 x i8*] }
%struct.__locale_data = type opaque
%"class.std::basic_ios" = type { %"class.std::ios_base", %"class.std::basic_ostream"*, i8, i8, %"class.std::basic_streambuf"*, %"class.std::ctype"*, %"class.std::num_put"*, %"class.std::num_get"* }
%"class.std::ios_base" = type { i32 (...)**, i64, i64, i32, i32, i32, %"struct.std::ios_base::_Callback_list"*, %"struct.std::ios_base::_Words", [8 x %"struct.std::ios_base::_Words"], i32, %"struct.std::ios_base::_Words"*, %"class.std::locale" }
%"struct.std::ios_base::_Callback_list" = type { %"struct.std::ios_base::_Callback_list"*, void (i32, %"class.std::ios_base"*, i32)*, i32, i32 }
%"struct.std::ios_base::_Words" = type { i8*, i64 }
%"class.std::basic_ostream" = type { i32 (...)**, %"class.std::basic_ios" }
%"class.std::ctype" = type <{ %"class.std::locale::facet.base", [4 x i8], %struct.__locale_struct*, i8, [7 x i8], i32*, i32*, i16*, i8, [256 x i8], [256 x i8], i8, [6 x i8] }>
%"class.std::num_put" = type { %"class.std::locale::facet.base", [4 x i8] }
%"class.std::num_get" = type { %"class.std::locale::facet.base", [4 x i8] }
%"class.std::basic_istream" = type { i32 (...)**, i64, %"class.std::basic_ios" }

$_ZStorSt13_Ios_OpenmodeS_ = comdat any

$__clang_call_terminate = comdat any

@.str = private unnamed_addr constant [10 x i8] c"hello.txt\00", align 1

; Function Attrs: uwtable
define void @test() #0 personality i8* bitcast (i32 (...)* @__gxx_personality_v0 to i8*) {
entry:
  %file = alloca %"class.std::basic_fstream", align 8
  %n = alloca i32, align 4
  %exn.slot = alloca i8*
  %ehselector.slot = alloca i32
  %call = call i32 @_ZStorSt13_Ios_OpenmodeS_(i32 8, i32 16)
  call void @_ZNSt13basic_fstreamIcSt11char_traitsIcEEC1EPKcSt13_Ios_Openmode(%"class.std::basic_fstream"* %file, i8* getelementptr inbounds ([10 x i8], [10 x i8]* @.str, i32 0, i32 0), i32 %call)
  %0 = bitcast %"class.std::basic_fstream"* %file to %"class.std::basic_istream"*
  %call1 = invoke dereferenceable(280) %"class.std::basic_istream"* @_ZNSirsERi(%"class.std::basic_istream"* %0, i32* dereferenceable(4) %n)
          to label %invoke.cont unwind label %lpad

invoke.cont:                                      ; preds = %entry
  invoke void @_ZNSt13basic_fstreamIcSt11char_traitsIcEE5closeEv(%"class.std::basic_fstream"* %file)
          to label %invoke.cont.2 unwind label %lpad

invoke.cont.2:                                    ; preds = %invoke.cont
  call void @_ZNSt13basic_fstreamIcSt11char_traitsIcEED1Ev(%"class.std::basic_fstream"* %file)
  ret void

lpad:                                             ; preds = %invoke.cont, %entry
  %1 = landingpad { i8*, i32 }
          cleanup
  %2 = extractvalue { i8*, i32 } %1, 0
  store i8* %2, i8** %exn.slot
  %3 = extractvalue { i8*, i32 } %1, 1
  store i32 %3, i32* %ehselector.slot
  invoke void @_ZNSt13basic_fstreamIcSt11char_traitsIcEED1Ev(%"class.std::basic_fstream"* %file)
          to label %invoke.cont.3 unwind label %terminate.lpad

invoke.cont.3:                                    ; preds = %lpad
  br label %eh.resume

eh.resume:                                        ; preds = %invoke.cont.3
  %exn = load i8*, i8** %exn.slot
  %sel = load i32, i32* %ehselector.slot
  %lpad.val = insertvalue { i8*, i32 } undef, i8* %exn, 0
  %lpad.val.4 = insertvalue { i8*, i32 } %lpad.val, i32 %sel, 1
  resume { i8*, i32 } %lpad.val.4

terminate.lpad:                                   ; preds = %lpad
  %4 = landingpad { i8*, i32 }
          catch i8* null
  %5 = extractvalue { i8*, i32 } %4, 0
  call void @__clang_call_terminate(i8* %5) #4
  unreachable
}

; Function Attrs: inlinehint nounwind uwtable
define linkonce_odr i32 @_ZStorSt13_Ios_OpenmodeS_(i32 %__a, i32 %__b) #1 comdat {
entry:
  %__a.addr = alloca i32, align 4
  %__b.addr = alloca i32, align 4
  store i32 %__a, i32* %__a.addr, align 4
  store i32 %__b, i32* %__b.addr, align 4
  %0 = load i32, i32* %__a.addr, align 4
  %1 = load i32, i32* %__b.addr, align 4
  %or = or i32 %0, %1
  ret i32 %or
}

declare void @_ZNSt13basic_fstreamIcSt11char_traitsIcEEC1EPKcSt13_Ios_Openmode(%"class.std::basic_fstream"*, i8*, i32) #2

declare dereferenceable(280) %"class.std::basic_istream"* @_ZNSirsERi(%"class.std::basic_istream"*, i32* dereferenceable(4)) #2

declare i32 @__gxx_personality_v0(...)

declare void @_ZNSt13basic_fstreamIcSt11char_traitsIcEE5closeEv(%"class.std::basic_fstream"*) #2

declare void @_ZNSt13basic_fstreamIcSt11char_traitsIcEED1Ev(%"class.std::basic_fstream"*) #2

; Function Attrs: noinline noreturn nounwind
define linkonce_odr hidden void @__clang_call_terminate(i8*) #3 comdat {
  %2 = call i8* @__cxa_begin_catch(i8* %0) #5
  call void @_ZSt9terminatev() #4
  unreachable
}

declare i8* @__cxa_begin_catch(i8*)

declare void @_ZSt9terminatev()

attributes #0 = { uwtable "disable-tail-calls"="false" "less-precise-fpmad"="false" "no-frame-pointer-elim"="true" "no-frame-pointer-elim-non-leaf" "no-infs-fp-math"="false" "no-nans-fp-math"="false" "stack-protector-buffer-size"="8" "target-cpu"="x86-64" "target-features"="+sse,+sse2" "unsafe-fp-math"="false" "use-soft-float"="false" }
attributes #1 = { inlinehint nounwind uwtable "disable-tail-calls"="false" "less-precise-fpmad"="false" "no-frame-pointer-elim"="true" "no-frame-pointer-elim-non-leaf" "no-infs-fp-math"="false" "no-nans-fp-math"="false" "stack-protector-buffer-size"="8" "target-cpu"="x86-64" "target-features"="+sse,+sse2" "unsafe-fp-math"="false" "use-soft-float"="false" }
attributes #2 = { "disable-tail-calls"="false" "less-precise-fpmad"="false" "no-frame-pointer-elim"="true" "no-frame-pointer-elim-non-leaf" "no-infs-fp-math"="false" "no-nans-fp-math"="false" "stack-protector-buffer-size"="8" "target-cpu"="x86-64" "target-features"="+sse,+sse2" "unsafe-fp-math"="false" "use-soft-float"="false" }
attributes #3 = { noinline noreturn nounwind }
attributes #4 = { noreturn nounwind }
attributes #5 = { nounwind }

!llvm.ident = !{!0}

!0 = !{!"clang version 3.7.1 (http://llvm.org/git/clang.git 0dbefa1b83eb90f7a06b5df5df254ce32be3db4b) (http://llvm.org/git/llvm.git 33c352b3eda89abc24e7511d9045fa2e499a42e3)"}
